; Function Attrs: nofree norecurse nosync nounwind memory(readwrite, inaccessiblemem: none) uwtable
define void @Txs_ManInitPrio(ptr noundef readonly captures(none) %0, ptr noundef readonly captures(none) %1) local_unnamed_addr #4 {
  %3 = getelementptr i8, ptr %0, i64 32
  %.val = load ptr, ptr %3, align 8, !tbaa !29
  %4 = getelementptr inbounds nuw i8, ptr %.val, i64 8
  store i32 2147483647, ptr %4, align 4, !tbaa !27
  %5 = getelementptr i8, ptr %1, i64 4
  %.val13 = load i32, ptr %5, align 4, !tbaa !12
  %6 = icmp sgt i32 %.val13, 0
  br i1 %6, label %.lr.ph.split.preheader, label %.critedge

.lr.ph.split.preheader:                           ; preds = %2
  %7 = getelementptr i8, ptr %1, i64 8
  %.val14 = load ptr, ptr %7, align 8, !tbaa !17
  %8 = getelementptr i8, ptr %0, i64 64
  %9 = getelementptr i8, ptr %0, i64 16
  %wide.trip.count = zext nneg i32 %.val13 to i64
  %.val17.pre.pre = load i32, ptr %9, align 8, !tbaa !49
  %.val18.pre.pre = load ptr, ptr %8, align 8, !tbaa !50
  %.phi.trans.insert = getelementptr i8, ptr %.val18.pre.pre, i64 4
  %10 = getelementptr i8, ptr %.val18.pre.pre, i64 4
  br label %.lr.ph.split

.lr.ph.split:                                     ; preds = %.lr.ph.split.preheader, %21
  %indvars.iv = phi i64 [ 0, %.lr.ph.split.preheader ], [ %indvars.iv.next, %21 ]
  %11 = getelementptr inbounds nuw i32, ptr %.val14, i64 %indvars.iv
  %12 = load i32, ptr %11, align 4, !tbaa !46
  %13 = sext i32 %12 to i64
  %14 = getelementptr inbounds %struct.Gia_Obj_t_, ptr %.val, i64 %13
  %.val19 = load i64, ptr %14, align 4
  %15 = and i64 %.val19, 2684354559
  %narrow.i.not.i = icmp eq i64 %15, 2684354559
  br i1 %narrow.i.not.i, label %Gia_ObjIsPi.exit, label %.lr.ph.split.Gia_ObjIsPi.exit.thread_crit_edge

.lr.ph.split.Gia_ObjIsPi.exit.thread_crit_edge:   ; preds = %.lr.ph.split
  %.val18.val.pre = load i32, ptr %.phi.trans.insert, align 4, !tbaa !12
  %.pre = lshr i64 %.val19, 32
  %.pre26 = trunc nuw i64 %.pre to i32
  %.pre28 = and i32 %.pre26, 536870911
  br label %Gia_ObjIsPi.exit.thread

Gia_ObjIsPi.exit:                                 ; preds = %.lr.ph.split
  %16 = lshr i64 %.val19, 32
  %17 = trunc nuw i64 %16 to i32
  %18 = and i32 %17, 536870911
  %.val5.val.i = load i32, ptr %10, align 4, !tbaa !12
  %19 = sub nsw i32 %.val5.val.i, %.val17.pre.pre
  %.not21 = icmp slt i32 %18, %19
  br i1 %.not21, label %21, label %Gia_ObjIsPi.exit.thread

Gia_ObjIsPi.exit.thread:                          ; preds = %.lr.ph.split.Gia_ObjIsPi.exit.thread_crit_edge, %Gia_ObjIsPi.exit
  %.pre-phi29 = phi i32 [ %.pre28, %.lr.ph.split.Gia_ObjIsPi.exit.thread_crit_edge ], [ %18, %Gia_ObjIsPi.exit ]
  %.val18.val = phi i32 [ %.val18.val.pre, %.lr.ph.split.Gia_ObjIsPi.exit.thread_crit_edge ], [ %.val5.val.i, %Gia_ObjIsPi.exit ]
  %.neg = add i32 %.val17.pre.pre, %.pre-phi29
  %20 = sub i32 %.neg, %.val18.val
  br label %21

21:                                               ; preds = %Gia_ObjIsPi.exit, %Gia_ObjIsPi.exit.thread
  %22 = phi i32 [ %20, %Gia_ObjIsPi.exit.thread ], [ 2147483647, %Gia_ObjIsPi.exit ]
  %23 = getelementptr inbounds nuw i8, ptr %14, i64 8
  store i32 %22, ptr %23, align 4, !tbaa !27
  %indvars.iv.next = add nuw nsw i64 %indvars.iv, 1
  %exitcond.not = icmp eq i64 %indvars.iv.next, %wide.trip.count
  br i1 %exitcond.not, label %.critedge, label %.lr.ph.split, !llvm.loop !60

.critedge:                                        ; preds = %21, %2
  ret void
}